   1              		.cpu arm7tdmi
   2              		.fpu softvfp
   3              		.eabi_attribute 20, 1
   4              		.eabi_attribute 21, 1
   5              		.eabi_attribute 23, 3
   6              		.eabi_attribute 24, 1
   7              		.eabi_attribute 25, 1
   8              		.eabi_attribute 26, 1
   9              		.eabi_attribute 30, 6
  10              		.eabi_attribute 18, 4
  11              		.file	"timers.c"
  21              	.Ltext0:
  22              		.file 1 "../src/timers.c"
 1909              		.align	2
 1910              	loop_ms:
 1911 0000 00000000 		.space	4
 1912              		.align	2
 1913              	loop_s:
 1914 0004 00000000 		.space	4
 1915              		.text
 1916              		.align	2
 1917              		.global	timers_init4
 1919              	timers_init4:
 1920              	.LFB0:
   1:../src/timers.c **** #include <s3c44b0x.h>
   2:../src/timers.c **** #include <s3cev40.h>
   3:../src/timers.c **** #include <timers.h>
   4:../src/timers.c **** 
   5:../src/timers.c **** extern void isr_TIMER0_dummy( void );
   6:../src/timers.c **** 
   7:../src/timers.c **** static uint32 loop_ms = 0;
   8:../src/timers.c **** static uint32 loop_s = 0;
   9:../src/timers.c **** 
  10:../src/timers.c **** static void sw_delay_init( void );
  11:../src/timers.c **** static void sw_delay_init4( void );
  12:../src/timers.c **** void timers_init4( void )
  13:../src/timers.c **** {
 1921              		.loc 1 13 0
 1922              		.cfi_startproc
 1923              		@ Function supports interworking.
 1924              		@ args = 0, pretend = 0, frame = 0
 1925              		@ frame_needed = 1, uses_anonymous_args = 0
 1926 0000 0DC0A0E1 		mov	ip, sp
 1927              	.LCFI0:
 1928              		.cfi_def_cfa_register 12
 1929 0004 00D82DE9 		stmfd	sp!, {fp, ip, lr, pc}
 1930 0008 04B04CE2 		sub	fp, ip, #4
 1931              		.cfi_offset 14, -8
 1932              		.cfi_offset 13, -12
 1933              		.cfi_offset 11, -16
 1934              	.LCFI1:
 1935              		.cfi_def_cfa 11, 4
  14:../src/timers.c ****     TCFG0 = 0;
 1936              		.loc 1 14 0
 1937 000c BC309FE5 		ldr	r3, .L2
 1938 0010 0020A0E3 		mov	r2, #0
 1939 0014 002083E5 		str	r2, [r3, #0]
  15:../src/timers.c ****     TCFG1 = 0;
 1940              		.loc 1 15 0
 1941 0018 B4309FE5 		ldr	r3, .L2+4
 1942 001c 0020A0E3 		mov	r2, #0
 1943 0020 002083E5 		str	r2, [r3, #0]
  16:../src/timers.c **** 
  17:../src/timers.c ****     TCNTB0 = 0x0;
 1944              		.loc 1 17 0
 1945 0024 AC309FE5 		ldr	r3, .L2+8
 1946 0028 0020A0E3 		mov	r2, #0
 1947 002c 002083E5 		str	r2, [r3, #0]
  18:../src/timers.c ****     TCMPB0 = 0x0;
 1948              		.loc 1 18 0
 1949 0030 A4309FE5 		ldr	r3, .L2+12
 1950 0034 0020A0E3 		mov	r2, #0
 1951 0038 002083E5 		str	r2, [r3, #0]
  19:../src/timers.c ****     TCNTB1 = 0x0;
 1952              		.loc 1 19 0
 1953 003c 9C309FE5 		ldr	r3, .L2+16
 1954 0040 0020A0E3 		mov	r2, #0
 1955 0044 002083E5 		str	r2, [r3, #0]
  20:../src/timers.c ****     TCMPB1 = 0x0;
 1956              		.loc 1 20 0
 1957 0048 94309FE5 		ldr	r3, .L2+20
 1958 004c 0020A0E3 		mov	r2, #0
 1959 0050 002083E5 		str	r2, [r3, #0]
  21:../src/timers.c ****     TCNTB2 = 0x0;
 1960              		.loc 1 21 0
 1961 0054 8C309FE5 		ldr	r3, .L2+24
 1962 0058 0020A0E3 		mov	r2, #0
 1963 005c 002083E5 		str	r2, [r3, #0]
  22:../src/timers.c ****     TCMPB2 = 0x0;
 1964              		.loc 1 22 0
 1965 0060 84309FE5 		ldr	r3, .L2+28
 1966 0064 0020A0E3 		mov	r2, #0
 1967 0068 002083E5 		str	r2, [r3, #0]
  23:../src/timers.c ****     TCNTB3 = 0x0;
 1968              		.loc 1 23 0
 1969 006c 7C309FE5 		ldr	r3, .L2+32
 1970 0070 0020A0E3 		mov	r2, #0
 1971 0074 002083E5 		str	r2, [r3, #0]
  24:../src/timers.c ****     TCMPB3 = 0x0;
 1972              		.loc 1 24 0
 1973 0078 74309FE5 		ldr	r3, .L2+36
 1974 007c 0020A0E3 		mov	r2, #0
 1975 0080 002083E5 		str	r2, [r3, #0]
  25:../src/timers.c ****     TCNTB4 = 0x0;
 1976              		.loc 1 25 0
 1977 0084 6C309FE5 		ldr	r3, .L2+40
 1978 0088 0020A0E3 		mov	r2, #0
 1979 008c 002083E5 		str	r2, [r3, #0]
  26:../src/timers.c ****     TCMPB4 = 0x0;
 1980              		.loc 1 26 0
 1981 0090 64309FE5 		ldr	r3, .L2+44
 1982 0094 0020A0E3 		mov	r2, #0
 1983 0098 002083E5 		str	r2, [r3, #0]
  27:../src/timers.c ****     TCNTB5 = 0x0;
 1984              		.loc 1 27 0
 1985 009c 5C309FE5 		ldr	r3, .L2+48
 1986 00a0 0020A0E3 		mov	r2, #0
 1987 00a4 002083E5 		str	r2, [r3, #0]
  28:../src/timers.c **** 
  29:../src/timers.c ****     TCON = (1<25)|(1<<21)|(1<<17)|(1<<13)|(1<<9)|(1<<1);
 1988              		.loc 1 29 0
 1989 00a8 54309FE5 		ldr	r3, .L2+52
 1990 00ac 54209FE5 		ldr	r2, .L2+56
 1991 00b0 002083E5 		str	r2, [r3, #0]
  30:../src/timers.c **** TCON = ((0<25)|(0<<21)|(0<<17)|(0<<13)|(0<<9)|(0<<1));
 1992              		.loc 1 30 0
 1993 00b4 48309FE5 		ldr	r3, .L2+52
 1994 00b8 0120A0E3 		mov	r2, #1
 1995 00bc 002083E5 		str	r2, [r3, #0]
  31:../src/timers.c **** 
  32:../src/timers.c ****     sw_delay_init4();
 1996              		.loc 1 32 0
 1997 00c0 540000EB 		bl	sw_delay_init4
  33:../src/timers.c **** }
 1998              		.loc 1 33 0
 1999 00c4 0CD04BE2 		sub	sp, fp, #12
 2000 00c8 00689DE8 		ldmfd	sp, {fp, sp, lr}
 2001 00cc 1EFF2FE1 		bx	lr
 2002              	.L3:
 2003              		.align	2
 2004              	.L2:
 2005 00d0 0000D501 		.word	30736384
 2006 00d4 0400D501 		.word	30736388
 2007 00d8 0C00D501 		.word	30736396
 2008 00dc 1000D501 		.word	30736400
 2009 00e0 1800D501 		.word	30736408
 2010 00e4 1C00D501 		.word	30736412
 2011 00e8 2400D501 		.word	30736420
 2012 00ec 2800D501 		.word	30736424
 2013 00f0 3000D501 		.word	30736432
 2014 00f4 3400D501 		.word	30736436
 2015 00f8 3C00D501 		.word	30736444
 2016 00fc 4000D501 		.word	30736448
 2017 0100 4800D501 		.word	30736456
 2018 0104 0800D501 		.word	30736392
 2019 0108 03222200 		.word	2236931
 2020              		.cfi_endproc
 2021              	.LFE0:
 2023              		.align	2
 2024              		.global	timers_init
 2026              	timers_init:
 2027              	.LFB1:
  34:../src/timers.c **** void timers_init( void )
  35:../src/timers.c **** {
 2028              		.loc 1 35 0
 2029              		.cfi_startproc
 2030              		@ Function supports interworking.
 2031              		@ args = 0, pretend = 0, frame = 0
 2032              		@ frame_needed = 1, uses_anonymous_args = 0
 2033 010c 0DC0A0E1 		mov	ip, sp
 2034              	.LCFI2:
 2035              		.cfi_def_cfa_register 12
 2036 0110 00D82DE9 		stmfd	sp!, {fp, ip, lr, pc}
 2037 0114 04B04CE2 		sub	fp, ip, #4
 2038              		.cfi_offset 14, -8
 2039              		.cfi_offset 13, -12
 2040              		.cfi_offset 11, -16
 2041              	.LCFI3:
 2042              		.cfi_def_cfa 11, 4
  36:../src/timers.c ****     TCFG0 = 0;
 2043              		.loc 1 36 0
 2044 0118 BC309FE5 		ldr	r3, .L5
 2045 011c 0020A0E3 		mov	r2, #0
 2046 0120 002083E5 		str	r2, [r3, #0]
  37:../src/timers.c ****     TCFG1 = 0;
 2047              		.loc 1 37 0
 2048 0124 B4309FE5 		ldr	r3, .L5+4
 2049 0128 0020A0E3 		mov	r2, #0
 2050 012c 002083E5 		str	r2, [r3, #0]
  38:../src/timers.c **** 
  39:../src/timers.c ****     TCNTB0 = 0x0;
 2051              		.loc 1 39 0
 2052 0130 AC309FE5 		ldr	r3, .L5+8
 2053 0134 0020A0E3 		mov	r2, #0
 2054 0138 002083E5 		str	r2, [r3, #0]
  40:../src/timers.c ****     TCMPB0 = 0x0;
 2055              		.loc 1 40 0
 2056 013c A4309FE5 		ldr	r3, .L5+12
 2057 0140 0020A0E3 		mov	r2, #0
 2058 0144 002083E5 		str	r2, [r3, #0]
  41:../src/timers.c ****     TCNTB1 = 0x0;
 2059              		.loc 1 41 0
 2060 0148 9C309FE5 		ldr	r3, .L5+16
 2061 014c 0020A0E3 		mov	r2, #0
 2062 0150 002083E5 		str	r2, [r3, #0]
  42:../src/timers.c ****     TCMPB1 = 0x0;
 2063              		.loc 1 42 0
 2064 0154 94309FE5 		ldr	r3, .L5+20
 2065 0158 0020A0E3 		mov	r2, #0
 2066 015c 002083E5 		str	r2, [r3, #0]
  43:../src/timers.c ****     TCNTB2 = 0x0;
 2067              		.loc 1 43 0
 2068 0160 8C309FE5 		ldr	r3, .L5+24
 2069 0164 0020A0E3 		mov	r2, #0
 2070 0168 002083E5 		str	r2, [r3, #0]
  44:../src/timers.c ****     TCMPB2 = 0x0;
 2071              		.loc 1 44 0
 2072 016c 84309FE5 		ldr	r3, .L5+28
 2073 0170 0020A0E3 		mov	r2, #0
 2074 0174 002083E5 		str	r2, [r3, #0]
  45:../src/timers.c ****     TCNTB3 = 0x0;
 2075              		.loc 1 45 0
 2076 0178 7C309FE5 		ldr	r3, .L5+32
 2077 017c 0020A0E3 		mov	r2, #0
 2078 0180 002083E5 		str	r2, [r3, #0]
  46:../src/timers.c ****     TCMPB3 = 0x0;
 2079              		.loc 1 46 0
 2080 0184 74309FE5 		ldr	r3, .L5+36
 2081 0188 0020A0E3 		mov	r2, #0
 2082 018c 002083E5 		str	r2, [r3, #0]
  47:../src/timers.c ****     TCNTB4 = 0x0;
 2083              		.loc 1 47 0
 2084 0190 6C309FE5 		ldr	r3, .L5+40
 2085 0194 0020A0E3 		mov	r2, #0
 2086 0198 002083E5 		str	r2, [r3, #0]
  48:../src/timers.c ****     TCMPB4 = 0x0;
 2087              		.loc 1 48 0
 2088 019c 64309FE5 		ldr	r3, .L5+44
 2089 01a0 0020A0E3 		mov	r2, #0
 2090 01a4 002083E5 		str	r2, [r3, #0]
  49:../src/timers.c ****     TCNTB5 = 0x0;
 2091              		.loc 1 49 0
 2092 01a8 5C309FE5 		ldr	r3, .L5+48
 2093 01ac 0020A0E3 		mov	r2, #0
 2094 01b0 002083E5 		str	r2, [r3, #0]
  50:../src/timers.c **** 
  51:../src/timers.c ****     TCON = (1<25)|(1<<21)|(1<<17)|(1<<13)|(1<<9)|(1<<1);
 2095              		.loc 1 51 0
 2096 01b4 54309FE5 		ldr	r3, .L5+52
 2097 01b8 54209FE5 		ldr	r2, .L5+56
 2098 01bc 002083E5 		str	r2, [r3, #0]
  52:../src/timers.c **** TCON = ((0<25)|(0<<21)|(0<<17)|(0<<13)|(0<<9)|(0<<1));
 2099              		.loc 1 52 0
 2100 01c0 48309FE5 		ldr	r3, .L5+52
 2101 01c4 0120A0E3 		mov	r2, #1
 2102 01c8 002083E5 		str	r2, [r3, #0]
  53:../src/timers.c **** 
  54:../src/timers.c ****     sw_delay_init();
 2103              		.loc 1 54 0
 2104 01cc 3E0000EB 		bl	sw_delay_init
  55:../src/timers.c **** }
 2105              		.loc 1 55 0
 2106 01d0 0CD04BE2 		sub	sp, fp, #12
 2107 01d4 00689DE8 		ldmfd	sp, {fp, sp, lr}
 2108 01d8 1EFF2FE1 		bx	lr
 2109              	.L6:
 2110              		.align	2
 2111              	.L5:
 2112 01dc 0000D501 		.word	30736384
 2113 01e0 0400D501 		.word	30736388
 2114 01e4 0C00D501 		.word	30736396
 2115 01e8 1000D501 		.word	30736400
 2116 01ec 1800D501 		.word	30736408
 2117 01f0 1C00D501 		.word	30736412
 2118 01f4 2400D501 		.word	30736420
 2119 01f8 2800D501 		.word	30736424
 2120 01fc 3000D501 		.word	30736432
 2121 0200 3400D501 		.word	30736436
 2122 0204 3C00D501 		.word	30736444
 2123 0208 4000D501 		.word	30736448
 2124 020c 4800D501 		.word	30736456
 2125 0210 0800D501 		.word	30736392
 2126 0214 03222200 		.word	2236931
 2127              		.cfi_endproc
 2128              	.LFE1:
 2130              		.global	__aeabi_uldivmod
 2131              		.align	2
 2133              	sw_delay_init4:
 2134              	.LFB2:
  56:../src/timers.c **** static void sw_delay_init4( void )
  57:../src/timers.c **** {
 2135              		.loc 1 57 0
 2136              		.cfi_startproc
 2137              		@ Function supports interworking.
 2138              		@ args = 0, pretend = 0, frame = 8
 2139              		@ frame_needed = 1, uses_anonymous_args = 0
 2140 0218 0DC0A0E1 		mov	ip, sp
 2141              	.LCFI4:
 2142              		.cfi_def_cfa_register 12
 2143 021c 10D82DE9 		stmfd	sp!, {r4, fp, ip, lr, pc}
 2144 0220 04B04CE2 		sub	fp, ip, #4
 2145              		.cfi_offset 14, -8
 2146              		.cfi_offset 13, -12
 2147              		.cfi_offset 11, -16
 2148              		.cfi_offset 4, -20
 2149              	.LCFI5:
 2150              		.cfi_def_cfa 11, 4
 2151 0224 0CD04DE2 		sub	sp, sp, #12
  58:../src/timers.c ****     uint32 i;
  59:../src/timers.c **** 
  60:../src/timers.c ****     timer4_start();
 2152              		.loc 1 60 0
 2153 0228 FEFFFFEB 		bl	timer4_start
  61:../src/timers.c ****     for( i=1000000; i; i--);
 2154              		.loc 1 61 0
 2155 022c 88309FE5 		ldr	r3, .L10
 2156 0230 18300BE5 		str	r3, [fp, #-24]
 2157 0234 020000EA 		b	.L8
 2158              	.L9:
 2159              		.loc 1 61 0 is_stmt 0 discriminator 2
 2160 0238 18301BE5 		ldr	r3, [fp, #-24]
 2161 023c 013043E2 		sub	r3, r3, #1
 2162 0240 18300BE5 		str	r3, [fp, #-24]
 2163              	.L8:
 2164              		.loc 1 61 0 discriminator 1
 2165 0244 18301BE5 		ldr	r3, [fp, #-24]
 2166 0248 000053E3 		cmp	r3, #0
 2167 024c F9FFFF1A 		bne	.L9
  62:../src/timers.c ****     loop_s = ((uint64)1000000*10000)/timer4_stop();
 2168              		.loc 1 62 0 is_stmt 1
 2169 0250 FEFFFFEB 		bl	timer4_stop
 2170 0254 0030A0E1 		mov	r3, r0
 2171 0258 0320A0E1 		mov	r2, r3
 2172 025c 0230A0E1 		mov	r3, r2
 2173 0260 0040A0E3 		mov	r4, #0
 2174 0264 1503A0E3 		mov	r0, #1409286144
 2175 0268 BE0A80E2 		add	r0, r0, #778240
 2176 026c 010B80E2 		add	r0, r0, #1024
 2177 0270 0210A0E3 		mov	r1, #2
 2178 0274 0320A0E1 		mov	r2, r3
 2179 0278 0430A0E1 		mov	r3, r4
 2180 027c FEFFFFEB 		bl	__aeabi_uldivmod
 2181 0280 0030A0E1 		mov	r3, r0
 2182 0284 0140A0E1 		mov	r4, r1
 2183 0288 0320A0E1 		mov	r2, r3
 2184 028c 2C309FE5 		ldr	r3, .L10+4
 2185 0290 002083E5 		str	r2, [r3, #0]
  63:../src/timers.c ****     loop_ms = loop_s / 1000;
 2186              		.loc 1 63 0
 2187 0294 24309FE5 		ldr	r3, .L10+4
 2188 0298 002093E5 		ldr	r2, [r3, #0]
 2189 029c 20309FE5 		ldr	r3, .L10+8
 2190 02a0 921383E0 		umull	r1, r3, r2, r3
 2191 02a4 2323A0E1 		mov	r2, r3, lsr #6
 2192 02a8 18309FE5 		ldr	r3, .L10+12
 2193 02ac 002083E5 		str	r2, [r3, #0]
  64:../src/timers.c **** };
 2194              		.loc 1 64 0
 2195 02b0 10D04BE2 		sub	sp, fp, #16
 2196 02b4 10689DE8 		ldmfd	sp, {r4, fp, sp, lr}
 2197 02b8 1EFF2FE1 		bx	lr
 2198              	.L11:
 2199              		.align	2
 2200              	.L10:
 2201 02bc 40420F00 		.word	1000000
 2202 02c0 04000000 		.word	loop_s
 2203 02c4 D34D6210 		.word	274877907
 2204 02c8 00000000 		.word	loop_ms
 2205              		.cfi_endproc
 2206              	.LFE2:
 2208              		.align	2
 2210              	sw_delay_init:
 2211              	.LFB3:
  65:../src/timers.c **** static void sw_delay_init( void )
  66:../src/timers.c **** {
 2212              		.loc 1 66 0
 2213              		.cfi_startproc
 2214              		@ Function supports interworking.
 2215              		@ args = 0, pretend = 0, frame = 8
 2216              		@ frame_needed = 1, uses_anonymous_args = 0
 2217 02cc 0DC0A0E1 		mov	ip, sp
 2218              	.LCFI6:
 2219              		.cfi_def_cfa_register 12
 2220 02d0 10D82DE9 		stmfd	sp!, {r4, fp, ip, lr, pc}
 2221 02d4 04B04CE2 		sub	fp, ip, #4
 2222              		.cfi_offset 14, -8
 2223              		.cfi_offset 13, -12
 2224              		.cfi_offset 11, -16
 2225              		.cfi_offset 4, -20
 2226              	.LCFI7:
 2227              		.cfi_def_cfa 11, 4
 2228 02d8 0CD04DE2 		sub	sp, sp, #12
  67:../src/timers.c ****     uint32 i;
  68:../src/timers.c **** 
  69:../src/timers.c ****     timer3_start();
 2229              		.loc 1 69 0
 2230 02dc FEFFFFEB 		bl	timer3_start
  70:../src/timers.c ****     for( i=1000000; i; i--);
 2231              		.loc 1 70 0
 2232 02e0 88309FE5 		ldr	r3, .L15
 2233 02e4 18300BE5 		str	r3, [fp, #-24]
 2234 02e8 020000EA 		b	.L13
 2235              	.L14:
 2236              		.loc 1 70 0 is_stmt 0 discriminator 2
 2237 02ec 18301BE5 		ldr	r3, [fp, #-24]
 2238 02f0 013043E2 		sub	r3, r3, #1
 2239 02f4 18300BE5 		str	r3, [fp, #-24]
 2240              	.L13:
 2241              		.loc 1 70 0 discriminator 1
 2242 02f8 18301BE5 		ldr	r3, [fp, #-24]
 2243 02fc 000053E3 		cmp	r3, #0
 2244 0300 F9FFFF1A 		bne	.L14
  71:../src/timers.c ****     loop_s = ((uint64)1000000*10000)/timer3_stop();
 2245              		.loc 1 71 0 is_stmt 1
 2246 0304 FEFFFFEB 		bl	timer3_stop
 2247 0308 0030A0E1 		mov	r3, r0
 2248 030c 0320A0E1 		mov	r2, r3
 2249 0310 0230A0E1 		mov	r3, r2
 2250 0314 0040A0E3 		mov	r4, #0
 2251 0318 1503A0E3 		mov	r0, #1409286144
 2252 031c BE0A80E2 		add	r0, r0, #778240
 2253 0320 010B80E2 		add	r0, r0, #1024
 2254 0324 0210A0E3 		mov	r1, #2
 2255 0328 0320A0E1 		mov	r2, r3
 2256 032c 0430A0E1 		mov	r3, r4
 2257 0330 FEFFFFEB 		bl	__aeabi_uldivmod
 2258 0334 0030A0E1 		mov	r3, r0
 2259 0338 0140A0E1 		mov	r4, r1
 2260 033c 0320A0E1 		mov	r2, r3
 2261 0340 2C309FE5 		ldr	r3, .L15+4
 2262 0344 002083E5 		str	r2, [r3, #0]
  72:../src/timers.c ****     loop_ms = loop_s / 1000;
 2263              		.loc 1 72 0
 2264 0348 24309FE5 		ldr	r3, .L15+4
 2265 034c 002093E5 		ldr	r2, [r3, #0]
 2266 0350 20309FE5 		ldr	r3, .L15+8
 2267 0354 921383E0 		umull	r1, r3, r2, r3
 2268 0358 2323A0E1 		mov	r2, r3, lsr #6
 2269 035c 18309FE5 		ldr	r3, .L15+12
 2270 0360 002083E5 		str	r2, [r3, #0]
  73:../src/timers.c **** };
 2271              		.loc 1 73 0
 2272 0364 10D04BE2 		sub	sp, fp, #16
 2273 0368 10689DE8 		ldmfd	sp, {r4, fp, sp, lr}
 2274 036c 1EFF2FE1 		bx	lr
 2275              	.L16:
 2276              		.align	2
 2277              	.L15:
 2278 0370 40420F00 		.word	1000000
 2279 0374 04000000 		.word	loop_s
 2280 0378 D34D6210 		.word	274877907
 2281 037c 00000000 		.word	loop_ms
 2282              		.cfi_endproc
 2283              	.LFE3:
 2285              		.align	2
 2286              		.global	timer3_delay_ms
 2288              	timer3_delay_ms:
 2289              	.LFB4:
  74:../src/timers.c **** 
  75:../src/timers.c **** void timer3_delay_ms( uint16 n )
  76:../src/timers.c **** {
 2290              		.loc 1 76 0
 2291              		.cfi_startproc
 2292              		@ Function supports interworking.
 2293              		@ args = 0, pretend = 0, frame = 8
 2294              		@ frame_needed = 1, uses_anonymous_args = 0
 2295 0380 0DC0A0E1 		mov	ip, sp
 2296              	.LCFI8:
 2297              		.cfi_def_cfa_register 12
 2298 0384 00D82DE9 		stmfd	sp!, {fp, ip, lr, pc}
 2299 0388 04B04CE2 		sub	fp, ip, #4
 2300              		.cfi_offset 14, -8
 2301              		.cfi_offset 13, -12
 2302              		.cfi_offset 11, -16
 2303              	.LCFI9:
 2304              		.cfi_def_cfa 11, 4
 2305 038c 08D04DE2 		sub	sp, sp, #8
 2306 0390 0030A0E1 		mov	r3, r0
 2307 0394 BE304BE1 		strh	r3, [fp, #-14]	@ movhi
  77:../src/timers.c ****     for( ; n; n-- )
 2308              		.loc 1 77 0
 2309 0398 270000EA 		b	.L18
 2310              	.L21:
  78:../src/timers.c ****     {
  79:../src/timers.c ****     TCFG0 = (TCFG0 & ~(0xff << 8)) | (199 << 8);
 2311              		.loc 1 79 0
 2312 039c B0309FE5 		ldr	r3, .L22
 2313 03a0 AC209FE5 		ldr	r2, .L22
 2314 03a4 002092E5 		ldr	r2, [r2, #0]
 2315 03a8 FF2CC2E3 		bic	r2, r2, #65280
 2316 03ac C72C82E3 		orr	r2, r2, #50944
 2317 03b0 002083E5 		str	r2, [r3, #0]
  80:../src/timers.c **** TCFG1 = (TCFG1 & ~(0xf << 12)) | (4 << 12);
 2318              		.loc 1 80 0
 2319 03b4 9C309FE5 		ldr	r3, .L22+4
 2320 03b8 98209FE5 		ldr	r2, .L22+4
 2321 03bc 002092E5 		ldr	r2, [r2, #0]
 2322 03c0 0F2AC2E3 		bic	r2, r2, #61440
 2323 03c4 012982E3 		orr	r2, r2, #16384
 2324 03c8 002083E5 		str	r2, [r3, #0]
  81:../src/timers.c **** 
  82:../src/timers.c **** TCNTB3 = 10;
 2325              		.loc 1 82 0
 2326 03cc 88309FE5 		ldr	r3, .L22+8
 2327 03d0 0A20A0E3 		mov	r2, #10
 2328 03d4 002083E5 		str	r2, [r3, #0]
  83:../src/timers.c **** TCON = (TCON & ~(0xf << 16)) | (1 << 17);
 2329              		.loc 1 83 0
 2330 03d8 80309FE5 		ldr	r3, .L22+12
 2331 03dc 7C209FE5 		ldr	r2, .L22+12
 2332 03e0 002092E5 		ldr	r2, [r2, #0]
 2333 03e4 0F28C2E3 		bic	r2, r2, #983040
 2334 03e8 022882E3 		orr	r2, r2, #131072
 2335 03ec 002083E5 		str	r2, [r3, #0]
  84:../src/timers.c **** TCON = (TCON & ~(0xf << 16)) | (1 << 16);
 2336              		.loc 1 84 0
 2337 03f0 68309FE5 		ldr	r3, .L22+12
 2338 03f4 64209FE5 		ldr	r2, .L22+12
 2339 03f8 002092E5 		ldr	r2, [r2, #0]
 2340 03fc 0F28C2E3 		bic	r2, r2, #983040
 2341 0400 012882E3 		orr	r2, r2, #65536
 2342 0404 002083E5 		str	r2, [r3, #0]
  85:../src/timers.c **** while( !TCNTO3 );
 2343              		.loc 1 85 0
 2344 0408 0000A0E1 		mov	r0, r0	@ nop
 2345              	.L19:
 2346              		.loc 1 85 0 is_stmt 0 discriminator 1
 2347 040c 50309FE5 		ldr	r3, .L22+16
 2348 0410 003093E5 		ldr	r3, [r3, #0]
 2349 0414 000053E3 		cmp	r3, #0
 2350 0418 FBFFFF0A 		beq	.L19
  86:../src/timers.c **** while(TCNTO3);
 2351              		.loc 1 86 0 is_stmt 1
 2352 041c 0000A0E1 		mov	r0, r0	@ nop
 2353              	.L20:
 2354              		.loc 1 86 0 is_stmt 0 discriminator 1
 2355 0420 3C309FE5 		ldr	r3, .L22+16
 2356 0424 003093E5 		ldr	r3, [r3, #0]
 2357 0428 000053E3 		cmp	r3, #0
 2358 042c FBFFFF1A 		bne	.L20
  77:../src/timers.c ****     for( ; n; n-- )
 2359              		.loc 1 77 0 is_stmt 1
 2360 0430 BE305BE1 		ldrh	r3, [fp, #-14]	@ movhi
 2361 0434 013043E2 		sub	r3, r3, #1
 2362 0438 BE304BE1 		strh	r3, [fp, #-14]	@ movhi
 2363              	.L18:
  77:../src/timers.c ****     for( ; n; n-- )
 2364              		.loc 1 77 0 is_stmt 0 discriminator 1
 2365 043c BE305BE1 		ldrh	r3, [fp, #-14]
 2366 0440 000053E3 		cmp	r3, #0
 2367 0444 D4FFFF1A 		bne	.L21
  87:../src/timers.c ****     }
  88:../src/timers.c **** }
 2368              		.loc 1 88 0 is_stmt 1
 2369 0448 0CD04BE2 		sub	sp, fp, #12
 2370 044c 00689DE8 		ldmfd	sp, {fp, sp, lr}
 2371 0450 1EFF2FE1 		bx	lr
 2372              	.L23:
 2373              		.align	2
 2374              	.L22:
 2375 0454 0000D501 		.word	30736384
 2376 0458 0400D501 		.word	30736388
 2377 045c 3000D501 		.word	30736432
 2378 0460 0800D501 		.word	30736392
 2379 0464 3800D501 		.word	30736440
 2380              		.cfi_endproc
 2381              	.LFE4:
 2383              		.align	2
 2384              		.global	sw_delay_ms
 2386              	sw_delay_ms:
 2387              	.LFB5:
  89:../src/timers.c **** 
  90:../src/timers.c **** void sw_delay_ms( uint16 n )
  91:../src/timers.c **** {
 2388              		.loc 1 91 0
 2389              		.cfi_startproc
 2390              		@ Function supports interworking.
 2391              		@ args = 0, pretend = 0, frame = 16
 2392              		@ frame_needed = 1, uses_anonymous_args = 0
 2393 0468 0DC0A0E1 		mov	ip, sp
 2394              	.LCFI10:
 2395              		.cfi_def_cfa_register 12
 2396 046c 00D82DE9 		stmfd	sp!, {fp, ip, lr, pc}
 2397 0470 04B04CE2 		sub	fp, ip, #4
 2398              		.cfi_offset 14, -8
 2399              		.cfi_offset 13, -12
 2400              		.cfi_offset 11, -16
 2401              	.LCFI11:
 2402              		.cfi_def_cfa 11, 4
 2403 0474 10D04DE2 		sub	sp, sp, #16
 2404 0478 0030A0E1 		mov	r3, r0
 2405 047c B6314BE1 		strh	r3, [fp, #-22]	@ movhi
  92:../src/timers.c ****     uint32 i;
  93:../src/timers.c **** 
  94:../src/timers.c ****     for( i=loop_ms*n; i; i-- );
 2406              		.loc 1 94 0
 2407 0480 B6315BE1 		ldrh	r3, [fp, #-22]
 2408 0484 30209FE5 		ldr	r2, .L27
 2409 0488 002092E5 		ldr	r2, [r2, #0]
 2410 048c 920303E0 		mul	r3, r2, r3
 2411 0490 10300BE5 		str	r3, [fp, #-16]
 2412 0494 020000EA 		b	.L25
 2413              	.L26:
 2414              		.loc 1 94 0 is_stmt 0 discriminator 2
 2415 0498 10301BE5 		ldr	r3, [fp, #-16]
 2416 049c 013043E2 		sub	r3, r3, #1
 2417 04a0 10300BE5 		str	r3, [fp, #-16]
 2418              	.L25:
 2419              		.loc 1 94 0 discriminator 1
 2420 04a4 10301BE5 		ldr	r3, [fp, #-16]
 2421 04a8 000053E3 		cmp	r3, #0
 2422 04ac F9FFFF1A 		bne	.L26
  95:../src/timers.c **** }
 2423              		.loc 1 95 0 is_stmt 1
 2424 04b0 0CD04BE2 		sub	sp, fp, #12
 2425 04b4 00689DE8 		ldmfd	sp, {fp, sp, lr}
 2426 04b8 1EFF2FE1 		bx	lr
 2427              	.L28:
 2428              		.align	2
 2429              	.L27:
 2430 04bc 00000000 		.word	loop_ms
 2431              		.cfi_endproc
 2432              	.LFE5:
 2434              		.align	2
 2435              		.global	timer3_delay_s
 2437              	timer3_delay_s:
 2438              	.LFB6:
  96:../src/timers.c **** 
  97:../src/timers.c **** void timer3_delay_s( uint16 n )
  98:../src/timers.c **** {
 2439              		.loc 1 98 0
 2440              		.cfi_startproc
 2441              		@ Function supports interworking.
 2442              		@ args = 0, pretend = 0, frame = 8
 2443              		@ frame_needed = 1, uses_anonymous_args = 0
 2444 04c0 0DC0A0E1 		mov	ip, sp
 2445              	.LCFI12:
 2446              		.cfi_def_cfa_register 12
 2447 04c4 00D82DE9 		stmfd	sp!, {fp, ip, lr, pc}
 2448 04c8 04B04CE2 		sub	fp, ip, #4
 2449              		.cfi_offset 14, -8
 2450              		.cfi_offset 13, -12
 2451              		.cfi_offset 11, -16
 2452              	.LCFI13:
 2453              		.cfi_def_cfa 11, 4
 2454 04cc 08D04DE2 		sub	sp, sp, #8
 2455 04d0 0030A0E1 		mov	r3, r0
 2456 04d4 BE304BE1 		strh	r3, [fp, #-14]	@ movhi
  99:../src/timers.c **** for( ; n; n-- )
 2457              		.loc 1 99 0
 2458 04d8 270000EA 		b	.L30
 2459              	.L33:
 100:../src/timers.c **** {
 101:../src/timers.c **** TCFG0 = (TCFG0 & ~(0xff << 8)) | (199 << 8);
 2460              		.loc 1 101 0
 2461 04dc B0309FE5 		ldr	r3, .L34
 2462 04e0 AC209FE5 		ldr	r2, .L34
 2463 04e4 002092E5 		ldr	r2, [r2, #0]
 2464 04e8 FF2CC2E3 		bic	r2, r2, #65280
 2465 04ec C72C82E3 		orr	r2, r2, #50944
 2466 04f0 002083E5 		str	r2, [r3, #0]
 102:../src/timers.c **** TCFG1 = (TCFG1 & ~(0xf << 12)) | (4 << 12);
 2467              		.loc 1 102 0
 2468 04f4 9C309FE5 		ldr	r3, .L34+4
 2469 04f8 98209FE5 		ldr	r2, .L34+4
 2470 04fc 002092E5 		ldr	r2, [r2, #0]
 2471 0500 0F2AC2E3 		bic	r2, r2, #61440
 2472 0504 012982E3 		orr	r2, r2, #16384
 2473 0508 002083E5 		str	r2, [r3, #0]
 103:../src/timers.c **** 
 104:../src/timers.c **** TCNTB3 = 10000;
 2474              		.loc 1 104 0
 2475 050c 88309FE5 		ldr	r3, .L34+8
 2476 0510 88209FE5 		ldr	r2, .L34+12
 2477 0514 002083E5 		str	r2, [r3, #0]
 105:../src/timers.c **** TCON = (TCON & ~(0xf << 16)) | (1 << 17);
 2478              		.loc 1 105 0
 2479 0518 84309FE5 		ldr	r3, .L34+16
 2480 051c 80209FE5 		ldr	r2, .L34+16
 2481 0520 002092E5 		ldr	r2, [r2, #0]
 2482 0524 0F28C2E3 		bic	r2, r2, #983040
 2483 0528 022882E3 		orr	r2, r2, #131072
 2484 052c 002083E5 		str	r2, [r3, #0]
 106:../src/timers.c **** TCON = (TCON & ~(0xf << 16)) | (1 << 16);
 2485              		.loc 1 106 0
 2486 0530 6C309FE5 		ldr	r3, .L34+16
 2487 0534 68209FE5 		ldr	r2, .L34+16
 2488 0538 002092E5 		ldr	r2, [r2, #0]
 2489 053c 0F28C2E3 		bic	r2, r2, #983040
 2490 0540 012882E3 		orr	r2, r2, #65536
 2491 0544 002083E5 		str	r2, [r3, #0]
 107:../src/timers.c **** while( !TCNTO3 );
 2492              		.loc 1 107 0
 2493 0548 0000A0E1 		mov	r0, r0	@ nop
 2494              	.L31:
 2495              		.loc 1 107 0 is_stmt 0 discriminator 1
 2496 054c 54309FE5 		ldr	r3, .L34+20
 2497 0550 003093E5 		ldr	r3, [r3, #0]
 2498 0554 000053E3 		cmp	r3, #0
 2499 0558 FBFFFF0A 		beq	.L31
 108:../src/timers.c **** while(TCNTO3);
 2500              		.loc 1 108 0 is_stmt 1
 2501 055c 0000A0E1 		mov	r0, r0	@ nop
 2502              	.L32:
 2503              		.loc 1 108 0 is_stmt 0 discriminator 1
 2504 0560 40309FE5 		ldr	r3, .L34+20
 2505 0564 003093E5 		ldr	r3, [r3, #0]
 2506 0568 000053E3 		cmp	r3, #0
 2507 056c FBFFFF1A 		bne	.L32
  99:../src/timers.c **** for( ; n; n-- )
 2508              		.loc 1 99 0 is_stmt 1
 2509 0570 BE305BE1 		ldrh	r3, [fp, #-14]	@ movhi
 2510 0574 013043E2 		sub	r3, r3, #1
 2511 0578 BE304BE1 		strh	r3, [fp, #-14]	@ movhi
 2512              	.L30:
  99:../src/timers.c **** for( ; n; n-- )
 2513              		.loc 1 99 0 is_stmt 0 discriminator 1
 2514 057c BE305BE1 		ldrh	r3, [fp, #-14]
 2515 0580 000053E3 		cmp	r3, #0
 2516 0584 D4FFFF1A 		bne	.L33
 109:../src/timers.c **** }
 110:../src/timers.c **** 
 111:../src/timers.c **** }
 2517              		.loc 1 111 0 is_stmt 1
 2518 0588 0CD04BE2 		sub	sp, fp, #12
 2519 058c 00689DE8 		ldmfd	sp, {fp, sp, lr}
 2520 0590 1EFF2FE1 		bx	lr
 2521              	.L35:
 2522              		.align	2
 2523              	.L34:
 2524 0594 0000D501 		.word	30736384
 2525 0598 0400D501 		.word	30736388
 2526 059c 3000D501 		.word	30736432
 2527 05a0 10270000 		.word	10000
 2528 05a4 0800D501 		.word	30736392
 2529 05a8 3800D501 		.word	30736440
 2530              		.cfi_endproc
 2531              	.LFE6:
 2533              		.align	2
 2534              		.global	sw_delay_s
 2536              	sw_delay_s:
 2537              	.LFB7:
 112:../src/timers.c **** 
 113:../src/timers.c **** void sw_delay_s( uint16 n )
 114:../src/timers.c **** {
 2538              		.loc 1 114 0
 2539              		.cfi_startproc
 2540              		@ Function supports interworking.
 2541              		@ args = 0, pretend = 0, frame = 16
 2542              		@ frame_needed = 1, uses_anonymous_args = 0
 2543 05ac 0DC0A0E1 		mov	ip, sp
 2544              	.LCFI14:
 2545              		.cfi_def_cfa_register 12
 2546 05b0 00D82DE9 		stmfd	sp!, {fp, ip, lr, pc}
 2547 05b4 04B04CE2 		sub	fp, ip, #4
 2548              		.cfi_offset 14, -8
 2549              		.cfi_offset 13, -12
 2550              		.cfi_offset 11, -16
 2551              	.LCFI15:
 2552              		.cfi_def_cfa 11, 4
 2553 05b8 10D04DE2 		sub	sp, sp, #16
 2554 05bc 0030A0E1 		mov	r3, r0
 2555 05c0 B6314BE1 		strh	r3, [fp, #-22]	@ movhi
 115:../src/timers.c ****     uint32 i;
 116:../src/timers.c **** 
 117:../src/timers.c ****     for( i=loop_s*n; i; i-- );
 2556              		.loc 1 117 0
 2557 05c4 B6315BE1 		ldrh	r3, [fp, #-22]
 2558 05c8 30209FE5 		ldr	r2, .L39
 2559 05cc 002092E5 		ldr	r2, [r2, #0]
 2560 05d0 920303E0 		mul	r3, r2, r3
 2561 05d4 10300BE5 		str	r3, [fp, #-16]
 2562 05d8 020000EA 		b	.L37
 2563              	.L38:
 2564              		.loc 1 117 0 is_stmt 0 discriminator 2
 2565 05dc 10301BE5 		ldr	r3, [fp, #-16]
 2566 05e0 013043E2 		sub	r3, r3, #1
 2567 05e4 10300BE5 		str	r3, [fp, #-16]
 2568              	.L37:
 2569              		.loc 1 117 0 discriminator 1
 2570 05e8 10301BE5 		ldr	r3, [fp, #-16]
 2571 05ec 000053E3 		cmp	r3, #0
 2572 05f0 F9FFFF1A 		bne	.L38
 118:../src/timers.c **** }
 2573              		.loc 1 118 0 is_stmt 1
 2574 05f4 0CD04BE2 		sub	sp, fp, #12
 2575 05f8 00689DE8 		ldmfd	sp, {fp, sp, lr}
 2576 05fc 1EFF2FE1 		bx	lr
 2577              	.L40:
 2578              		.align	2
 2579              	.L39:
 2580 0600 04000000 		.word	loop_s
 2581              		.cfi_endproc
 2582              	.LFE7:
 2584              		.align	2
 2585              		.global	timer3_start
 2587              	timer3_start:
 2588              	.LFB8:
 119:../src/timers.c **** 
 120:../src/timers.c **** void timer3_start( void )
 121:../src/timers.c **** {
 2589              		.loc 1 121 0
 2590              		.cfi_startproc
 2591              		@ Function supports interworking.
 2592              		@ args = 0, pretend = 0, frame = 0
 2593              		@ frame_needed = 1, uses_anonymous_args = 0
 2594 0604 0DC0A0E1 		mov	ip, sp
 2595              	.LCFI16:
 2596              		.cfi_def_cfa_register 12
 2597 0608 00D82DE9 		stmfd	sp!, {fp, ip, lr, pc}
 2598 060c 04B04CE2 		sub	fp, ip, #4
 2599              		.cfi_offset 14, -8
 2600              		.cfi_offset 13, -12
 2601              		.cfi_offset 11, -16
 2602              	.LCFI17:
 2603              		.cfi_def_cfa 11, 4
 122:../src/timers.c ****     TCFG0 = (TCFG0 & ~(0xff << 8)) | (199 << 8);    
 2604              		.loc 1 122 0
 2605 0610 84309FE5 		ldr	r3, .L43
 2606 0614 80209FE5 		ldr	r2, .L43
 2607 0618 002092E5 		ldr	r2, [r2, #0]
 2608 061c FF2CC2E3 		bic	r2, r2, #65280
 2609 0620 C72C82E3 		orr	r2, r2, #50944
 2610 0624 002083E5 		str	r2, [r3, #0]
 123:../src/timers.c ****     TCFG1 = (TCFG1 & ~(0xf << 12)) | (4 << 12);
 2611              		.loc 1 123 0
 2612 0628 70309FE5 		ldr	r3, .L43+4
 2613 062c 6C209FE5 		ldr	r2, .L43+4
 2614 0630 002092E5 		ldr	r2, [r2, #0]
 2615 0634 0F2AC2E3 		bic	r2, r2, #61440
 2616 0638 012982E3 		orr	r2, r2, #16384
 2617 063c 002083E5 		str	r2, [r3, #0]
 124:../src/timers.c **** 
 125:../src/timers.c ****     TCNTB3 = 0xffff;
 2618              		.loc 1 125 0
 2619 0640 5C309FE5 		ldr	r3, .L43+8
 2620 0644 5C209FE5 		ldr	r2, .L43+12
 2621 0648 002083E5 		str	r2, [r3, #0]
 126:../src/timers.c ****     TCON = (TCON & ~(0xf << 16)) | (1 << 17);
 2622              		.loc 1 126 0
 2623 064c 58309FE5 		ldr	r3, .L43+16
 2624 0650 54209FE5 		ldr	r2, .L43+16
 2625 0654 002092E5 		ldr	r2, [r2, #0]
 2626 0658 0F28C2E3 		bic	r2, r2, #983040
 2627 065c 022882E3 		orr	r2, r2, #131072
 2628 0660 002083E5 		str	r2, [r3, #0]
 127:../src/timers.c ****     TCON = (TCON & ~(0xf << 16)) | (1 << 16);
 2629              		.loc 1 127 0
 2630 0664 40309FE5 		ldr	r3, .L43+16
 2631 0668 3C209FE5 		ldr	r2, .L43+16
 2632 066c 002092E5 		ldr	r2, [r2, #0]
 2633 0670 0F28C2E3 		bic	r2, r2, #983040
 2634 0674 012882E3 		orr	r2, r2, #65536
 2635 0678 002083E5 		str	r2, [r3, #0]
 128:../src/timers.c ****     while( !TCNTO3 );
 2636              		.loc 1 128 0
 2637 067c 0000A0E1 		mov	r0, r0	@ nop
 2638              	.L42:
 2639              		.loc 1 128 0 is_stmt 0 discriminator 1
 2640 0680 28309FE5 		ldr	r3, .L43+20
 2641 0684 003093E5 		ldr	r3, [r3, #0]
 2642 0688 000053E3 		cmp	r3, #0
 2643 068c FBFFFF0A 		beq	.L42
 129:../src/timers.c **** }
 2644              		.loc 1 129 0 is_stmt 1
 2645 0690 0CD04BE2 		sub	sp, fp, #12
 2646 0694 00689DE8 		ldmfd	sp, {fp, sp, lr}
 2647 0698 1EFF2FE1 		bx	lr
 2648              	.L44:
 2649              		.align	2
 2650              	.L43:
 2651 069c 0000D501 		.word	30736384
 2652 06a0 0400D501 		.word	30736388
 2653 06a4 3000D501 		.word	30736432
 2654 06a8 FFFF0000 		.word	65535
 2655 06ac 0800D501 		.word	30736392
 2656 06b0 3800D501 		.word	30736440
 2657              		.cfi_endproc
 2658              	.LFE8:
 2660              		.align	2
 2661              		.global	timer3_stop
 2663              	timer3_stop:
 2664              	.LFB9:
 130:../src/timers.c **** 
 131:../src/timers.c **** uint16 timer3_stop( void )
 132:../src/timers.c **** {
 2665              		.loc 1 132 0
 2666              		.cfi_startproc
 2667              		@ Function supports interworking.
 2668              		@ args = 0, pretend = 0, frame = 0
 2669              		@ frame_needed = 1, uses_anonymous_args = 0
 2670 06b4 0DC0A0E1 		mov	ip, sp
 2671              	.LCFI18:
 2672              		.cfi_def_cfa_register 12
 2673 06b8 00D82DE9 		stmfd	sp!, {fp, ip, lr, pc}
 2674 06bc 04B04CE2 		sub	fp, ip, #4
 2675              		.cfi_offset 14, -8
 2676              		.cfi_offset 13, -12
 2677              		.cfi_offset 11, -16
 2678              	.LCFI19:
 2679              		.cfi_def_cfa 11, 4
 133:../src/timers.c ****     TCON &= ~(1 << 16);
 2680              		.loc 1 133 0
 2681 06c0 38309FE5 		ldr	r3, .L46
 2682 06c4 34209FE5 		ldr	r2, .L46
 2683 06c8 002092E5 		ldr	r2, [r2, #0]
 2684 06cc 0128C2E3 		bic	r2, r2, #65536
 2685 06d0 002083E5 		str	r2, [r3, #0]
 134:../src/timers.c ****     return 0xffff - TCNTO3;
 2686              		.loc 1 134 0
 2687 06d4 28309FE5 		ldr	r3, .L46+4
 2688 06d8 003093E5 		ldr	r3, [r3, #0]
 2689 06dc 0338A0E1 		mov	r3, r3, asl #16
 2690 06e0 2338A0E1 		mov	r3, r3, lsr #16
 2691 06e4 0330E0E1 		mvn	r3, r3
 2692 06e8 0338A0E1 		mov	r3, r3, asl #16
 2693 06ec 2338A0E1 		mov	r3, r3, lsr #16
 135:../src/timers.c **** }
 2694              		.loc 1 135 0
 2695 06f0 0300A0E1 		mov	r0, r3
 2696 06f4 0CD04BE2 		sub	sp, fp, #12
 2697 06f8 00689DE8 		ldmfd	sp, {fp, sp, lr}
 2698 06fc 1EFF2FE1 		bx	lr
 2699              	.L47:
 2700              		.align	2
 2701              	.L46:
 2702 0700 0800D501 		.word	30736392
 2703 0704 3800D501 		.word	30736440
 2704              		.cfi_endproc
 2705              	.LFE9:
 2707              		.align	2
 2708              		.global	timer3_start_timeout
 2710              	timer3_start_timeout:
 2711              	.LFB10:
 136:../src/timers.c **** 
 137:../src/timers.c **** void timer3_start_timeout( uint16 n )
 138:../src/timers.c **** {
 2712              		.loc 1 138 0
 2713              		.cfi_startproc
 2714              		@ Function supports interworking.
 2715              		@ args = 0, pretend = 0, frame = 8
 2716              		@ frame_needed = 1, uses_anonymous_args = 0
 2717 0708 0DC0A0E1 		mov	ip, sp
 2718              	.LCFI20:
 2719              		.cfi_def_cfa_register 12
 2720 070c 00D82DE9 		stmfd	sp!, {fp, ip, lr, pc}
 2721 0710 04B04CE2 		sub	fp, ip, #4
 2722              		.cfi_offset 14, -8
 2723              		.cfi_offset 13, -12
 2724              		.cfi_offset 11, -16
 2725              	.LCFI21:
 2726              		.cfi_def_cfa 11, 4
 2727 0714 08D04DE2 		sub	sp, sp, #8
 2728 0718 0030A0E1 		mov	r3, r0
 2729 071c BE304BE1 		strh	r3, [fp, #-14]	@ movhi
 139:../src/timers.c ****     TCFG0 = (TCFG0 & ~(0xff << 8)) | (199 << 8);          
 2730              		.loc 1 139 0
 2731 0720 84309FE5 		ldr	r3, .L50
 2732 0724 80209FE5 		ldr	r2, .L50
 2733 0728 002092E5 		ldr	r2, [r2, #0]
 2734 072c FF2CC2E3 		bic	r2, r2, #65280
 2735 0730 C72C82E3 		orr	r2, r2, #50944
 2736 0734 002083E5 		str	r2, [r3, #0]
 140:../src/timers.c ****     TCFG1 = (TCFG1 & ~(0xf << 12)) | (4 << 12);
 2737              		.loc 1 140 0
 2738 0738 70309FE5 		ldr	r3, .L50+4
 2739 073c 6C209FE5 		ldr	r2, .L50+4
 2740 0740 002092E5 		ldr	r2, [r2, #0]
 2741 0744 0F2AC2E3 		bic	r2, r2, #61440
 2742 0748 012982E3 		orr	r2, r2, #16384
 2743 074c 002083E5 		str	r2, [r3, #0]
 141:../src/timers.c **** 
 142:../src/timers.c ****     TCNTB3 = n;
 2744              		.loc 1 142 0
 2745 0750 5C309FE5 		ldr	r3, .L50+8
 2746 0754 BE205BE1 		ldrh	r2, [fp, #-14]
 2747 0758 002083E5 		str	r2, [r3, #0]
 143:../src/timers.c ****     TCON = (TCON & ~(0xf << 16)) | (1 << 17);
 2748              		.loc 1 143 0
 2749 075c 54309FE5 		ldr	r3, .L50+12
 2750 0760 50209FE5 		ldr	r2, .L50+12
 2751 0764 002092E5 		ldr	r2, [r2, #0]
 2752 0768 0F28C2E3 		bic	r2, r2, #983040
 2753 076c 022882E3 		orr	r2, r2, #131072
 2754 0770 002083E5 		str	r2, [r3, #0]
 144:../src/timers.c ****     TCON = (TCON & ~(0xf << 16)) | (1 << 16);
 2755              		.loc 1 144 0
 2756 0774 3C309FE5 		ldr	r3, .L50+12
 2757 0778 38209FE5 		ldr	r2, .L50+12
 2758 077c 002092E5 		ldr	r2, [r2, #0]
 2759 0780 0F28C2E3 		bic	r2, r2, #983040
 2760 0784 012882E3 		orr	r2, r2, #65536
 2761 0788 002083E5 		str	r2, [r3, #0]
 145:../src/timers.c ****     while( !TCNTO3 );
 2762              		.loc 1 145 0
 2763 078c 0000A0E1 		mov	r0, r0	@ nop
 2764              	.L49:
 2765              		.loc 1 145 0 is_stmt 0 discriminator 1
 2766 0790 24309FE5 		ldr	r3, .L50+16
 2767 0794 003093E5 		ldr	r3, [r3, #0]
 2768 0798 000053E3 		cmp	r3, #0
 2769 079c FBFFFF0A 		beq	.L49
 146:../src/timers.c **** }
 2770              		.loc 1 146 0 is_stmt 1
 2771 07a0 0CD04BE2 		sub	sp, fp, #12
 2772 07a4 00689DE8 		ldmfd	sp, {fp, sp, lr}
 2773 07a8 1EFF2FE1 		bx	lr
 2774              	.L51:
 2775              		.align	2
 2776              	.L50:
 2777 07ac 0000D501 		.word	30736384
 2778 07b0 0400D501 		.word	30736388
 2779 07b4 3000D501 		.word	30736432
 2780 07b8 0800D501 		.word	30736392
 2781 07bc 3800D501 		.word	30736440
 2782              		.cfi_endproc
 2783              	.LFE10:
 2785              		.align	2
 2786              		.global	timer3_timeout
 2788              	timer3_timeout:
 2789              	.LFB11:
 147:../src/timers.c **** 
 148:../src/timers.c **** uint16 timer3_timeout( )
 149:../src/timers.c **** {
 2790              		.loc 1 149 0
 2791              		.cfi_startproc
 2792              		@ Function supports interworking.
 2793              		@ args = 0, pretend = 0, frame = 0
 2794              		@ frame_needed = 1, uses_anonymous_args = 0
 2795 07c0 0DC0A0E1 		mov	ip, sp
 2796              	.LCFI22:
 2797              		.cfi_def_cfa_register 12
 2798 07c4 00D82DE9 		stmfd	sp!, {fp, ip, lr, pc}
 2799 07c8 04B04CE2 		sub	fp, ip, #4
 2800              		.cfi_offset 14, -8
 2801              		.cfi_offset 13, -12
 2802              		.cfi_offset 11, -16
 2803              	.LCFI23:
 2804              		.cfi_def_cfa 11, 4
 150:../src/timers.c ****     return !TCNTO3;
 2805              		.loc 1 150 0
 2806 07cc 24309FE5 		ldr	r3, .L53
 2807 07d0 003093E5 		ldr	r3, [r3, #0]
 2808 07d4 000053E3 		cmp	r3, #0
 2809 07d8 0030A013 		movne	r3, #0
 2810 07dc 0130A003 		moveq	r3, #1
 2811 07e0 0338A0E1 		mov	r3, r3, asl #16
 2812 07e4 2338A0E1 		mov	r3, r3, lsr #16
 151:../src/timers.c **** }    
 2813              		.loc 1 151 0
 2814 07e8 0300A0E1 		mov	r0, r3
 2815 07ec 0CD04BE2 		sub	sp, fp, #12
 2816 07f0 00689DE8 		ldmfd	sp, {fp, sp, lr}
 2817 07f4 1EFF2FE1 		bx	lr
 2818              	.L54:
 2819              		.align	2
 2820              	.L53:
 2821 07f8 3800D501 		.word	30736440
 2822              		.cfi_endproc
 2823              	.LFE11:
 2825              		.global	__aeabi_uidiv
 2826              		.align	2
 2827              		.global	timer0_open_tick
 2829              	timer0_open_tick:
 2830              	.LFB12:
 152:../src/timers.c **** 
 153:../src/timers.c **** void timer0_open_tick( void (*isr)(void), uint16 tps )
 154:../src/timers.c **** {
 2831              		.loc 1 154 0
 2832              		.cfi_startproc
 2833              		@ Function supports interworking.
 2834              		@ args = 0, pretend = 0, frame = 8
 2835              		@ frame_needed = 1, uses_anonymous_args = 0
 2836 07fc 0DC0A0E1 		mov	ip, sp
 2837              	.LCFI24:
 2838              		.cfi_def_cfa_register 12
 2839 0800 10D82DE9 		stmfd	sp!, {r4, fp, ip, lr, pc}
 2840 0804 04B04CE2 		sub	fp, ip, #4
 2841              		.cfi_offset 14, -8
 2842              		.cfi_offset 13, -12
 2843              		.cfi_offset 11, -16
 2844              		.cfi_offset 4, -20
 2845              	.LCFI25:
 2846              		.cfi_def_cfa 11, 4
 2847 0808 0CD04DE2 		sub	sp, sp, #12
 2848 080c 18000BE5 		str	r0, [fp, #-24]
 2849 0810 0130A0E1 		mov	r3, r1
 2850 0814 BA314BE1 		strh	r3, [fp, #-26]	@ movhi
 155:../src/timers.c **** 	pISR_TIMER0 =(uint32) isr;
 2851              		.loc 1 155 0
 2852 0818 FC319FE5 		ldr	r3, .L60
 2853 081c 18201BE5 		ldr	r2, [fp, #-24]
 2854 0820 002083E5 		str	r2, [r3, #0]
 156:../src/timers.c **** 	I_ISPC      = I_ISPC |(BIT_TIMER0);
 2855              		.loc 1 156 0
 2856 0824 F4319FE5 		ldr	r3, .L60+4
 2857 0828 F0219FE5 		ldr	r2, .L60+4
 2858 082c 002092E5 		ldr	r2, [r2, #0]
 2859 0830 022A82E3 		orr	r2, r2, #8192
 2860 0834 002083E5 		str	r2, [r3, #0]
 157:../src/timers.c **** 	INTMSK     &= ~((BIT_TIMER0)|(BIT_GLOBAL));
 2861              		.loc 1 157 0
 2862 0838 E4219FE5 		ldr	r2, .L60+8
 2863 083c E0319FE5 		ldr	r3, .L60+8
 2864 0840 003093E5 		ldr	r3, [r3, #0]
 2865 0844 0133C3E3 		bic	r3, r3, #67108864
 2866 0848 023AC3E3 		bic	r3, r3, #8192
 2867 084c 003082E5 		str	r3, [r2, #0]
 158:../src/timers.c **** 
 159:../src/timers.c ****     if( tps > 0 && tps <= 10 ) {
 2868              		.loc 1 159 0
 2869 0850 BA315BE1 		ldrh	r3, [fp, #-26]
 2870 0854 000053E3 		cmp	r3, #0
 2871 0858 1800000A 		beq	.L56
 2872              		.loc 1 159 0 is_stmt 0 discriminator 1
 2873 085c BA315BE1 		ldrh	r3, [fp, #-26]
 2874 0860 0A0053E3 		cmp	r3, #10
 2875 0864 1500008A 		bhi	.L56
 160:../src/timers.c ****     	TCFG0  = (TCFG0 & ~(0xff)) | (49);
 2876              		.loc 1 160 0 is_stmt 1
 2877 0868 B8319FE5 		ldr	r3, .L60+12
 2878 086c B4219FE5 		ldr	r2, .L60+12
 2879 0870 002092E5 		ldr	r2, [r2, #0]
 2880 0874 FF20C2E3 		bic	r2, r2, #255
 2881 0878 312082E3 		orr	r2, r2, #49
 2882 087c 002083E5 		str	r2, [r3, #0]
 161:../src/timers.c ****     	TCFG1 = (TCFG1 & ~(0xf)) | (4);
 2883              		.loc 1 161 0
 2884 0880 A4319FE5 		ldr	r3, .L60+16
 2885 0884 A0219FE5 		ldr	r2, .L60+16
 2886 0888 002092E5 		ldr	r2, [r2, #0]
 2887 088c 0F20C2E3 		bic	r2, r2, #15
 2888 0890 042082E3 		orr	r2, r2, #4
 2889 0894 002083E5 		str	r2, [r3, #0]
 162:../src/timers.c ****         TCNTB0 = (40000U / tps);
 2890              		.loc 1 162 0
 2891 0898 90419FE5 		ldr	r4, .L60+20
 2892 089c BA315BE1 		ldrh	r3, [fp, #-26]
 2893 08a0 8C019FE5 		ldr	r0, .L60+24
 2894 08a4 0310A0E1 		mov	r1, r3
 2895 08a8 FEFFFFEB 		bl	__aeabi_uidiv
 2896 08ac 0030A0E1 		mov	r3, r0
 2897 08b0 0338A0E1 		mov	r3, r3, asl #16
 2898 08b4 2338A0E1 		mov	r3, r3, lsr #16
 2899 08b8 003084E5 		str	r3, [r4, #0]
 2900 08bc 470000EA 		b	.L57
 2901              	.L56:
 163:../src/timers.c ****     } else if( tps > 10 && tps <= 100 ) {
 2902              		.loc 1 163 0
 2903 08c0 BA315BE1 		ldrh	r3, [fp, #-26]
 2904 08c4 0A0053E3 		cmp	r3, #10
 2905 08c8 1600009A 		bls	.L58
 2906              		.loc 1 163 0 is_stmt 0 discriminator 1
 2907 08cc BA315BE1 		ldrh	r3, [fp, #-26]
 2908 08d0 640053E3 		cmp	r3, #100
 2909 08d4 1300008A 		bhi	.L58
 164:../src/timers.c ****     	TCFG0  = (TCFG0 & ~(0xff)) | (9);
 2910              		.loc 1 164 0 is_stmt 1
 2911 08d8 48319FE5 		ldr	r3, .L60+12
 2912 08dc 44219FE5 		ldr	r2, .L60+12
 2913 08e0 002092E5 		ldr	r2, [r2, #0]
 2914 08e4 FF20C2E3 		bic	r2, r2, #255
 2915 08e8 092082E3 		orr	r2, r2, #9
 2916 08ec 002083E5 		str	r2, [r3, #0]
 165:../src/timers.c ****     	TCFG1  = (TCFG1 & ~(0xf)) | (3);
 2917              		.loc 1 165 0
 2918 08f0 34319FE5 		ldr	r3, .L60+16
 2919 08f4 30219FE5 		ldr	r2, .L60+16
 2920 08f8 002092E5 		ldr	r2, [r2, #0]
 2921 08fc 0F20C2E3 		bic	r2, r2, #15
 2922 0900 032082E3 		orr	r2, r2, #3
 2923 0904 002083E5 		str	r2, [r3, #0]
 166:../src/timers.c ****         TCNTB0 = (400000U / (uint32) tps);
 2924              		.loc 1 166 0
 2925 0908 20419FE5 		ldr	r4, .L60+20
 2926 090c BA315BE1 		ldrh	r3, [fp, #-26]
 2927 0910 20019FE5 		ldr	r0, .L60+28
 2928 0914 0310A0E1 		mov	r1, r3
 2929 0918 FEFFFFEB 		bl	__aeabi_uidiv
 2930 091c 0030A0E1 		mov	r3, r0
 2931 0920 003084E5 		str	r3, [r4, #0]
 2932 0924 2D0000EA 		b	.L57
 2933              	.L58:
 167:../src/timers.c ****     } else if( tps > 100 && tps <= 1000 ) {
 2934              		.loc 1 167 0
 2935 0928 BA315BE1 		ldrh	r3, [fp, #-26]
 2936 092c 640053E3 		cmp	r3, #100
 2937 0930 1600009A 		bls	.L59
 2938              		.loc 1 167 0 is_stmt 0 discriminator 1
 2939 0934 BA315BE1 		ldrh	r3, [fp, #-26]
 2940 0938 FA0F53E3 		cmp	r3, #1000
 2941 093c 1300008A 		bhi	.L59
 168:../src/timers.c ****     	TCFG0  = (TCFG0 & ~(0xff)) | (1);
 2942              		.loc 1 168 0 is_stmt 1
 2943 0940 E0309FE5 		ldr	r3, .L60+12
 2944 0944 DC209FE5 		ldr	r2, .L60+12
 2945 0948 002092E5 		ldr	r2, [r2, #0]
 2946 094c FF20C2E3 		bic	r2, r2, #255
 2947 0950 012082E3 		orr	r2, r2, #1
 2948 0954 002083E5 		str	r2, [r3, #0]
 169:../src/timers.c ****     	TCFG1  = (TCFG1 & ~(0xf)) | (2);
 2949              		.loc 1 169 0
 2950 0958 CC309FE5 		ldr	r3, .L60+16
 2951 095c C8209FE5 		ldr	r2, .L60+16
 2952 0960 002092E5 		ldr	r2, [r2, #0]
 2953 0964 0F20C2E3 		bic	r2, r2, #15
 2954 0968 022082E3 		orr	r2, r2, #2
 2955 096c 002083E5 		str	r2, [r3, #0]
 170:../src/timers.c ****         TCNTB0 = (4000000U / (uint32) tps);
 2956              		.loc 1 170 0
 2957 0970 B8409FE5 		ldr	r4, .L60+20
 2958 0974 BA315BE1 		ldrh	r3, [fp, #-26]
 2959 0978 BC009FE5 		ldr	r0, .L60+32
 2960 097c 0310A0E1 		mov	r1, r3
 2961 0980 FEFFFFEB 		bl	__aeabi_uidiv
 2962 0984 0030A0E1 		mov	r3, r0
 2963 0988 003084E5 		str	r3, [r4, #0]
 2964 098c 130000EA 		b	.L57
 2965              	.L59:
 171:../src/timers.c ****     } else if ( tps > 1000 ) {
 2966              		.loc 1 171 0
 2967 0990 BA315BE1 		ldrh	r3, [fp, #-26]
 2968 0994 FA0F53E3 		cmp	r3, #1000
 2969 0998 1000009A 		bls	.L57
 172:../src/timers.c ****     	TCFG0  = (TCFG0 & ~(0xff));
 2970              		.loc 1 172 0
 2971 099c 84309FE5 		ldr	r3, .L60+12
 2972 09a0 80209FE5 		ldr	r2, .L60+12
 2973 09a4 002092E5 		ldr	r2, [r2, #0]
 2974 09a8 FF20C2E3 		bic	r2, r2, #255
 2975 09ac 002083E5 		str	r2, [r3, #0]
 173:../src/timers.c ****     	TCFG1  = (TCFG1 & ~(0xf));
 2976              		.loc 1 173 0
 2977 09b0 74309FE5 		ldr	r3, .L60+16
 2978 09b4 70209FE5 		ldr	r2, .L60+16
 2979 09b8 002092E5 		ldr	r2, [r2, #0]
 2980 09bc 0F20C2E3 		bic	r2, r2, #15
 2981 09c0 002083E5 		str	r2, [r3, #0]
 174:../src/timers.c ****         TCNTB0 = (32000000U / (uint32) tps);
 2982              		.loc 1 174 0
 2983 09c4 64409FE5 		ldr	r4, .L60+20
 2984 09c8 BA315BE1 		ldrh	r3, [fp, #-26]
 2985 09cc 6C009FE5 		ldr	r0, .L60+36
 2986 09d0 0310A0E1 		mov	r1, r3
 2987 09d4 FEFFFFEB 		bl	__aeabi_uidiv
 2988 09d8 0030A0E1 		mov	r3, r0
 2989 09dc 003084E5 		str	r3, [r4, #0]
 2990              	.L57:
 175:../src/timers.c ****     }
 176:../src/timers.c **** 
 177:../src/timers.c ****     TCON = (TCON & ~(0x3)) | (1<<1)|(1<<3);
 2991              		.loc 1 177 0
 2992 09e0 5C309FE5 		ldr	r3, .L60+40
 2993 09e4 58209FE5 		ldr	r2, .L60+40
 2994 09e8 002092E5 		ldr	r2, [r2, #0]
 2995 09ec 0B20C2E3 		bic	r2, r2, #11
 2996 09f0 0A2082E3 		orr	r2, r2, #10
 2997 09f4 002083E5 		str	r2, [r3, #0]
 178:../src/timers.c **** 	TCON = (TCON & ~(0x3)) | (1<<0)|(1<<3);
 2998              		.loc 1 178 0
 2999 09f8 44309FE5 		ldr	r3, .L60+40
 3000 09fc 40209FE5 		ldr	r2, .L60+40
 3001 0a00 002092E5 		ldr	r2, [r2, #0]
 3002 0a04 0B20C2E3 		bic	r2, r2, #11
 3003 0a08 092082E3 		orr	r2, r2, #9
 3004 0a0c 002083E5 		str	r2, [r3, #0]
 179:../src/timers.c **** }
 3005              		.loc 1 179 0
 3006 0a10 10D04BE2 		sub	sp, fp, #16
 3007 0a14 10689DE8 		ldmfd	sp, {r4, fp, sp, lr}
 3008 0a18 1EFF2FE1 		bx	lr
 3009              	.L61:
 3010              		.align	2
 3011              	.L60:
 3012 0a1c 54FF7F0C 		.word	209715028
 3013 0a20 2400E001 		.word	31457316
 3014 0a24 0C00E001 		.word	31457292
 3015 0a28 0000D501 		.word	30736384
 3016 0a2c 0400D501 		.word	30736388
 3017 0a30 0C00D501 		.word	30736396
 3018 0a34 409C0000 		.word	40000
 3019 0a38 801A0600 		.word	400000
 3020 0a3c 00093D00 		.word	4000000
 3021 0a40 0048E801 		.word	32000000
 3022 0a44 0800D501 		.word	30736392
 3023              		.cfi_endproc
 3024              	.LFE12:
 3026              		.align	2
 3027              		.global	timer0_open_ms
 3029              	timer0_open_ms:
 3030              	.LFB13:
 180:../src/timers.c **** 
 181:../src/timers.c **** void timer0_open_ms( void (*isr)(void), uint16 ms, uint8 mode )
 182:../src/timers.c **** {
 3031              		.loc 1 182 0
 3032              		.cfi_startproc
 3033              		@ Function supports interworking.
 3034              		@ args = 0, pretend = 0, frame = 8
 3035              		@ frame_needed = 1, uses_anonymous_args = 0
 3036 0a48 0DC0A0E1 		mov	ip, sp
 3037              	.LCFI26:
 3038              		.cfi_def_cfa_register 12
 3039 0a4c 00D82DE9 		stmfd	sp!, {fp, ip, lr, pc}
 3040 0a50 04B04CE2 		sub	fp, ip, #4
 3041              		.cfi_offset 14, -8
 3042              		.cfi_offset 13, -12
 3043              		.cfi_offset 11, -16
 3044              	.LCFI27:
 3045              		.cfi_def_cfa 11, 4
 3046 0a54 08D04DE2 		sub	sp, sp, #8
 3047 0a58 10000BE5 		str	r0, [fp, #-16]
 3048 0a5c 0230A0E1 		mov	r3, r2
 3049 0a60 B2114BE1 		strh	r1, [fp, #-18]	@ movhi
 3050 0a64 13304BE5 		strb	r3, [fp, #-19]
 183:../src/timers.c ****     pISR_TIMER0 = isr;
 3051              		.loc 1 183 0
 3052 0a68 D0309FE5 		ldr	r3, .L63
 3053 0a6c 10201BE5 		ldr	r2, [fp, #-16]
 3054 0a70 002083E5 		str	r2, [r3, #0]
 184:../src/timers.c ****     I_ISPC      = I_ISPC |(BIT_TIMER0);
 3055              		.loc 1 184 0
 3056 0a74 C8309FE5 		ldr	r3, .L63+4
 3057 0a78 C4209FE5 		ldr	r2, .L63+4
 3058 0a7c 002092E5 		ldr	r2, [r2, #0]
 3059 0a80 022A82E3 		orr	r2, r2, #8192
 3060 0a84 002083E5 		str	r2, [r3, #0]
 185:../src/timers.c ****     INTMSK     &= ~((BIT_TIMER0)|(BIT_GLOBAL));
 3061              		.loc 1 185 0
 3062 0a88 B8209FE5 		ldr	r2, .L63+8
 3063 0a8c B4309FE5 		ldr	r3, .L63+8
 3064 0a90 003093E5 		ldr	r3, [r3, #0]
 3065 0a94 0133C3E3 		bic	r3, r3, #67108864
 3066 0a98 023AC3E3 		bic	r3, r3, #8192
 3067 0a9c 003082E5 		str	r3, [r2, #0]
 186:../src/timers.c **** 
 187:../src/timers.c ****     TCFG0  = (TCFG0 & ~(0xff)) | (199);
 3068              		.loc 1 187 0
 3069 0aa0 A4309FE5 		ldr	r3, .L63+12
 3070 0aa4 A0209FE5 		ldr	r2, .L63+12
 3071 0aa8 002092E5 		ldr	r2, [r2, #0]
 3072 0aac FF20C2E3 		bic	r2, r2, #255
 3073 0ab0 C72082E3 		orr	r2, r2, #199
 3074 0ab4 002083E5 		str	r2, [r3, #0]
 188:../src/timers.c **** TCFG1  = (TCFG1 & ~(0xf)) | (4);
 3075              		.loc 1 188 0
 3076 0ab8 90309FE5 		ldr	r3, .L63+16
 3077 0abc 8C209FE5 		ldr	r2, .L63+16
 3078 0ac0 002092E5 		ldr	r2, [r2, #0]
 3079 0ac4 0F20C2E3 		bic	r2, r2, #15
 3080 0ac8 042082E3 		orr	r2, r2, #4
 3081 0acc 002083E5 		str	r2, [r3, #0]
 189:../src/timers.c ****     TCNTB0 = 10*ms;
 3082              		.loc 1 189 0
 3083 0ad0 7C109FE5 		ldr	r1, .L63+20
 3084 0ad4 B2215BE1 		ldrh	r2, [fp, #-18]
 3085 0ad8 0230A0E1 		mov	r3, r2
 3086 0adc 0331A0E1 		mov	r3, r3, asl #2
 3087 0ae0 023083E0 		add	r3, r3, r2
 3088 0ae4 8330A0E1 		mov	r3, r3, asl #1
 3089 0ae8 003081E5 		str	r3, [r1, #0]
 190:../src/timers.c **** 
 191:../src/timers.c ****     TCON = (TCON & ~(0xf)) | (1<<1)| mode<<3;
 3090              		.loc 1 191 0
 3091 0aec 64309FE5 		ldr	r3, .L63+24
 3092 0af0 60209FE5 		ldr	r2, .L63+24
 3093 0af4 002092E5 		ldr	r2, [r2, #0]
 3094 0af8 0F10C2E3 		bic	r1, r2, #15
 3095 0afc 13205BE5 		ldrb	r2, [fp, #-19]	@ zero_extendqisi2
 3096 0b00 8221A0E1 		mov	r2, r2, asl #3
 3097 0b04 022081E1 		orr	r2, r1, r2
 3098 0b08 022082E3 		orr	r2, r2, #2
 3099 0b0c 002083E5 		str	r2, [r3, #0]
 192:../src/timers.c ****     TCON = (TCON & ~(0xf)) | (1<<0)| mode<<3;
 3100              		.loc 1 192 0
 3101 0b10 40309FE5 		ldr	r3, .L63+24
 3102 0b14 3C209FE5 		ldr	r2, .L63+24
 3103 0b18 002092E5 		ldr	r2, [r2, #0]
 3104 0b1c 0F10C2E3 		bic	r1, r2, #15
 3105 0b20 13205BE5 		ldrb	r2, [fp, #-19]	@ zero_extendqisi2
 3106 0b24 8221A0E1 		mov	r2, r2, asl #3
 3107 0b28 022081E1 		orr	r2, r1, r2
 3108 0b2c 012082E3 		orr	r2, r2, #1
 3109 0b30 002083E5 		str	r2, [r3, #0]
 193:../src/timers.c **** }
 3110              		.loc 1 193 0
 3111 0b34 0CD04BE2 		sub	sp, fp, #12
 3112 0b38 00689DE8 		ldmfd	sp, {fp, sp, lr}
 3113 0b3c 1EFF2FE1 		bx	lr
 3114              	.L64:
 3115              		.align	2
 3116              	.L63:
 3117 0b40 54FF7F0C 		.word	209715028
 3118 0b44 2400E001 		.word	31457316
 3119 0b48 0C00E001 		.word	31457292
 3120 0b4c 0000D501 		.word	30736384
 3121 0b50 0400D501 		.word	30736388
 3122 0b54 0C00D501 		.word	30736396
 3123 0b58 0800D501 		.word	30736392
 3124              		.cfi_endproc
 3125              	.LFE13:
 3127              		.align	2
 3128              		.global	timer0_close
 3130              	timer0_close:
 3131              	.LFB14:
 194:../src/timers.c **** 
 195:../src/timers.c **** void timer0_close( void )
 196:../src/timers.c **** {
 3132              		.loc 1 196 0
 3133              		.cfi_startproc
 3134              		@ Function supports interworking.
 3135              		@ args = 0, pretend = 0, frame = 0
 3136              		@ frame_needed = 1, uses_anonymous_args = 0
 3137 0b5c 0DC0A0E1 		mov	ip, sp
 3138              	.LCFI28:
 3139              		.cfi_def_cfa_register 12
 3140 0b60 00D82DE9 		stmfd	sp!, {fp, ip, lr, pc}
 3141 0b64 04B04CE2 		sub	fp, ip, #4
 3142              		.cfi_offset 14, -8
 3143              		.cfi_offset 13, -12
 3144              		.cfi_offset 11, -16
 3145              	.LCFI29:
 3146              		.cfi_def_cfa 11, 4
 197:../src/timers.c ****     TCNTB0 = 0x0;
 3147              		.loc 1 197 0
 3148 0b68 6C309FE5 		ldr	r3, .L66
 3149 0b6c 0020A0E3 		mov	r2, #0
 3150 0b70 002083E5 		str	r2, [r3, #0]
 198:../src/timers.c ****     TCMPB0 = 0x0;
 3151              		.loc 1 198 0
 3152 0b74 64309FE5 		ldr	r3, .L66+4
 3153 0b78 0020A0E3 		mov	r2, #0
 3154 0b7c 002083E5 		str	r2, [r3, #0]
 199:../src/timers.c **** 
 200:../src/timers.c ****     TCON = (TCON & ~(0x11)) | (1<<1);
 3155              		.loc 1 200 0
 3156 0b80 5C309FE5 		ldr	r3, .L66+8
 3157 0b84 58209FE5 		ldr	r2, .L66+8
 3158 0b88 002092E5 		ldr	r2, [r2, #0]
 3159 0b8c 1320C2E3 		bic	r2, r2, #19
 3160 0b90 022082E3 		orr	r2, r2, #2
 3161 0b94 002083E5 		str	r2, [r3, #0]
 201:../src/timers.c ****     TCON = (TCON & ~(0x11)) | (1<<0);
 3162              		.loc 1 201 0
 3163 0b98 44309FE5 		ldr	r3, .L66+8
 3164 0b9c 40209FE5 		ldr	r2, .L66+8
 3165 0ba0 002092E5 		ldr	r2, [r2, #0]
 3166 0ba4 1120C2E3 		bic	r2, r2, #17
 3167 0ba8 012082E3 		orr	r2, r2, #1
 3168 0bac 002083E5 		str	r2, [r3, #0]
 202:../src/timers.c **** 
 203:../src/timers.c ****     INTMSK     |= BIT_TIMER0;
 3169              		.loc 1 203 0
 3170 0bb0 30309FE5 		ldr	r3, .L66+12
 3171 0bb4 2C209FE5 		ldr	r2, .L66+12
 3172 0bb8 002092E5 		ldr	r2, [r2, #0]
 3173 0bbc 022A82E3 		orr	r2, r2, #8192
 3174 0bc0 002083E5 		str	r2, [r3, #0]
 204:../src/timers.c ****     pISR_TIMER0 = isr_TIMER0_dummy;
 3175              		.loc 1 204 0
 3176 0bc4 20309FE5 		ldr	r3, .L66+16
 3177 0bc8 20209FE5 		ldr	r2, .L66+20
 3178 0bcc 002083E5 		str	r2, [r3, #0]
 205:../src/timers.c **** }
 3179              		.loc 1 205 0
 3180 0bd0 0CD04BE2 		sub	sp, fp, #12
 3181 0bd4 00689DE8 		ldmfd	sp, {fp, sp, lr}
 3182 0bd8 1EFF2FE1 		bx	lr
 3183              	.L67:
 3184              		.align	2
 3185              	.L66:
 3186 0bdc 0C00D501 		.word	30736396
 3187 0be0 1000D501 		.word	30736400
 3188 0be4 0800D501 		.word	30736392
 3189 0be8 0C00E001 		.word	31457292
 3190 0bec 54FF7F0C 		.word	209715028
 3191 0bf0 00000000 		.word	isr_TIMER0_dummy
 3192              		.cfi_endproc
 3193              	.LFE14:
 3195              		.align	2
 3196              		.global	timer4_start
 3198              	timer4_start:
 3199              	.LFB15:
 206:../src/timers.c **** void timer4_start( void )
 207:../src/timers.c **** {
 3200              		.loc 1 207 0
 3201              		.cfi_startproc
 3202              		@ Function supports interworking.
 3203              		@ args = 0, pretend = 0, frame = 0
 3204              		@ frame_needed = 1, uses_anonymous_args = 0
 3205 0bf4 0DC0A0E1 		mov	ip, sp
 3206              	.LCFI30:
 3207              		.cfi_def_cfa_register 12
 3208 0bf8 00D82DE9 		stmfd	sp!, {fp, ip, lr, pc}
 3209 0bfc 04B04CE2 		sub	fp, ip, #4
 3210              		.cfi_offset 14, -8
 3211              		.cfi_offset 13, -12
 3212              		.cfi_offset 11, -16
 3213              	.LCFI31:
 3214              		.cfi_def_cfa 11, 4
 208:../src/timers.c ****     TCFG0 = (TCFG0 & ~(0xff << 16)) | (199 << 16);
 3215              		.loc 1 208 0
 3216 0c00 84309FE5 		ldr	r3, .L70
 3217 0c04 80209FE5 		ldr	r2, .L70
 3218 0c08 002092E5 		ldr	r2, [r2, #0]
 3219 0c0c FF28C2E3 		bic	r2, r2, #16711680
 3220 0c10 C72882E3 		orr	r2, r2, #13041664
 3221 0c14 002083E5 		str	r2, [r3, #0]
 209:../src/timers.c ****     TCFG1 = (TCFG1 & ~(0xf << 16)) | (4 << 16);
 3222              		.loc 1 209 0
 3223 0c18 70309FE5 		ldr	r3, .L70+4
 3224 0c1c 6C209FE5 		ldr	r2, .L70+4
 3225 0c20 002092E5 		ldr	r2, [r2, #0]
 3226 0c24 0F28C2E3 		bic	r2, r2, #983040
 3227 0c28 012782E3 		orr	r2, r2, #262144
 3228 0c2c 002083E5 		str	r2, [r3, #0]
 210:../src/timers.c **** 
 211:../src/timers.c ****     TCNTB4 = 0xffff;
 3229              		.loc 1 211 0
 3230 0c30 5C309FE5 		ldr	r3, .L70+8
 3231 0c34 5C209FE5 		ldr	r2, .L70+12
 3232 0c38 002083E5 		str	r2, [r3, #0]
 212:../src/timers.c ****     TCON = (TCON & ~(0xf << 20)) | (1 << 21);
 3233              		.loc 1 212 0
 3234 0c3c 58309FE5 		ldr	r3, .L70+16
 3235 0c40 54209FE5 		ldr	r2, .L70+16
 3236 0c44 002092E5 		ldr	r2, [r2, #0]
 3237 0c48 0F26C2E3 		bic	r2, r2, #15728640
 3238 0c4c 022682E3 		orr	r2, r2, #2097152
 3239 0c50 002083E5 		str	r2, [r3, #0]
 213:../src/timers.c ****     TCON = (TCON & ~(0xf << 20)) | (1 << 20);
 3240              		.loc 1 213 0
 3241 0c54 40309FE5 		ldr	r3, .L70+16
 3242 0c58 3C209FE5 		ldr	r2, .L70+16
 3243 0c5c 002092E5 		ldr	r2, [r2, #0]
 3244 0c60 0F26C2E3 		bic	r2, r2, #15728640
 3245 0c64 012682E3 		orr	r2, r2, #1048576
 3246 0c68 002083E5 		str	r2, [r3, #0]
 214:../src/timers.c ****     while( !TCNTO4 );
 3247              		.loc 1 214 0
 3248 0c6c 0000A0E1 		mov	r0, r0	@ nop
 3249              	.L69:
 3250              		.loc 1 214 0 is_stmt 0 discriminator 1
 3251 0c70 28309FE5 		ldr	r3, .L70+20
 3252 0c74 003093E5 		ldr	r3, [r3, #0]
 3253 0c78 000053E3 		cmp	r3, #0
 3254 0c7c FBFFFF0A 		beq	.L69
 215:../src/timers.c **** }
 3255              		.loc 1 215 0 is_stmt 1
 3256 0c80 0CD04BE2 		sub	sp, fp, #12
 3257 0c84 00689DE8 		ldmfd	sp, {fp, sp, lr}
 3258 0c88 1EFF2FE1 		bx	lr
 3259              	.L71:
 3260              		.align	2
 3261              	.L70:
 3262 0c8c 0000D501 		.word	30736384
 3263 0c90 0400D501 		.word	30736388
 3264 0c94 3C00D501 		.word	30736444
 3265 0c98 FFFF0000 		.word	65535
 3266 0c9c 0800D501 		.word	30736392
 3267 0ca0 4400D501 		.word	30736452
 3268              		.cfi_endproc
 3269              	.LFE15:
 3271              		.align	2
 3272              		.global	timer4_stop
 3274              	timer4_stop:
 3275              	.LFB16:
 216:../src/timers.c **** 
 217:../src/timers.c **** uint16 timer4_stop( void )
 218:../src/timers.c **** {
 3276              		.loc 1 218 0
 3277              		.cfi_startproc
 3278              		@ Function supports interworking.
 3279              		@ args = 0, pretend = 0, frame = 0
 3280              		@ frame_needed = 1, uses_anonymous_args = 0
 3281 0ca4 0DC0A0E1 		mov	ip, sp
 3282              	.LCFI32:
 3283              		.cfi_def_cfa_register 12
 3284 0ca8 00D82DE9 		stmfd	sp!, {fp, ip, lr, pc}
 3285 0cac 04B04CE2 		sub	fp, ip, #4
 3286              		.cfi_offset 14, -8
 3287              		.cfi_offset 13, -12
 3288              		.cfi_offset 11, -16
 3289              	.LCFI33:
 3290              		.cfi_def_cfa 11, 4
 219:../src/timers.c ****     TCON &= ~(1 << 20);
 3291              		.loc 1 219 0
 3292 0cb0 38309FE5 		ldr	r3, .L73
 3293 0cb4 34209FE5 		ldr	r2, .L73
 3294 0cb8 002092E5 		ldr	r2, [r2, #0]
 3295 0cbc 0126C2E3 		bic	r2, r2, #1048576
 3296 0cc0 002083E5 		str	r2, [r3, #0]
 220:../src/timers.c ****     return 0xffff - TCNTO4;
 3297              		.loc 1 220 0
 3298 0cc4 28309FE5 		ldr	r3, .L73+4
 3299 0cc8 003093E5 		ldr	r3, [r3, #0]
 3300 0ccc 0338A0E1 		mov	r3, r3, asl #16
 3301 0cd0 2338A0E1 		mov	r3, r3, lsr #16
 3302 0cd4 0330E0E1 		mvn	r3, r3
 3303 0cd8 0338A0E1 		mov	r3, r3, asl #16
 3304 0cdc 2338A0E1 		mov	r3, r3, lsr #16
 221:../src/timers.c **** }
 3305              		.loc 1 221 0
 3306 0ce0 0300A0E1 		mov	r0, r3
 3307 0ce4 0CD04BE2 		sub	sp, fp, #12
 3308 0ce8 00689DE8 		ldmfd	sp, {fp, sp, lr}
 3309 0cec 1EFF2FE1 		bx	lr
 3310              	.L74:
 3311              		.align	2
 3312              	.L73:
 3313 0cf0 0800D501 		.word	30736392
 3314 0cf4 4400D501 		.word	30736452
 3315              		.cfi_endproc
 3316              	.LFE16:
 3318              		.align	2
 3319              		.global	timer4_start_timeout
 3321              	timer4_start_timeout:
 3322              	.LFB17:
 222:../src/timers.c **** 
 223:../src/timers.c **** void timer4_start_timeout( uint16 n )
 224:../src/timers.c **** {
 3323              		.loc 1 224 0
 3324              		.cfi_startproc
 3325              		@ Function supports interworking.
 3326              		@ args = 0, pretend = 0, frame = 8
 3327              		@ frame_needed = 1, uses_anonymous_args = 0
 3328 0cf8 0DC0A0E1 		mov	ip, sp
 3329              	.LCFI34:
 3330              		.cfi_def_cfa_register 12
 3331 0cfc 00D82DE9 		stmfd	sp!, {fp, ip, lr, pc}
 3332 0d00 04B04CE2 		sub	fp, ip, #4
 3333              		.cfi_offset 14, -8
 3334              		.cfi_offset 13, -12
 3335              		.cfi_offset 11, -16
 3336              	.LCFI35:
 3337              		.cfi_def_cfa 11, 4
 3338 0d04 08D04DE2 		sub	sp, sp, #8
 3339 0d08 0030A0E1 		mov	r3, r0
 3340 0d0c BE304BE1 		strh	r3, [fp, #-14]	@ movhi
 225:../src/timers.c ****     TCFG0 = (TCFG0 & ~(0xff << 16)) | (199 << 16);
 3341              		.loc 1 225 0
 3342 0d10 84309FE5 		ldr	r3, .L77
 3343 0d14 80209FE5 		ldr	r2, .L77
 3344 0d18 002092E5 		ldr	r2, [r2, #0]
 3345 0d1c FF28C2E3 		bic	r2, r2, #16711680
 3346 0d20 C72882E3 		orr	r2, r2, #13041664
 3347 0d24 002083E5 		str	r2, [r3, #0]
 226:../src/timers.c ****     TCFG1 = (TCFG1 & ~(0xf << 16)) | (4 << 16);
 3348              		.loc 1 226 0
 3349 0d28 70309FE5 		ldr	r3, .L77+4
 3350 0d2c 6C209FE5 		ldr	r2, .L77+4
 3351 0d30 002092E5 		ldr	r2, [r2, #0]
 3352 0d34 0F28C2E3 		bic	r2, r2, #983040
 3353 0d38 012782E3 		orr	r2, r2, #262144
 3354 0d3c 002083E5 		str	r2, [r3, #0]
 227:../src/timers.c **** 
 228:../src/timers.c ****     TCNTB4 = n;
 3355              		.loc 1 228 0
 3356 0d40 5C309FE5 		ldr	r3, .L77+8
 3357 0d44 BE205BE1 		ldrh	r2, [fp, #-14]
 3358 0d48 002083E5 		str	r2, [r3, #0]
 229:../src/timers.c ****     TCON = (TCON & ~(0xf << 20)) | (1 << 21);
 3359              		.loc 1 229 0
 3360 0d4c 54309FE5 		ldr	r3, .L77+12
 3361 0d50 50209FE5 		ldr	r2, .L77+12
 3362 0d54 002092E5 		ldr	r2, [r2, #0]
 3363 0d58 0F26C2E3 		bic	r2, r2, #15728640
 3364 0d5c 022682E3 		orr	r2, r2, #2097152
 3365 0d60 002083E5 		str	r2, [r3, #0]
 230:../src/timers.c ****     TCON = (TCON & ~(0xf << 20)) | (1 << 20);
 3366              		.loc 1 230 0
 3367 0d64 3C309FE5 		ldr	r3, .L77+12
 3368 0d68 38209FE5 		ldr	r2, .L77+12
 3369 0d6c 002092E5 		ldr	r2, [r2, #0]
 3370 0d70 0F26C2E3 		bic	r2, r2, #15728640
 3371 0d74 012682E3 		orr	r2, r2, #1048576
 3372 0d78 002083E5 		str	r2, [r3, #0]
 231:../src/timers.c ****     while( !TCNTO4 );
 3373              		.loc 1 231 0
 3374 0d7c 0000A0E1 		mov	r0, r0	@ nop
 3375              	.L76:
 3376              		.loc 1 231 0 is_stmt 0 discriminator 1
 3377 0d80 24309FE5 		ldr	r3, .L77+16
 3378 0d84 003093E5 		ldr	r3, [r3, #0]
 3379 0d88 000053E3 		cmp	r3, #0
 3380 0d8c FBFFFF0A 		beq	.L76
 232:../src/timers.c **** }
 3381              		.loc 1 232 0 is_stmt 1
 3382 0d90 0CD04BE2 		sub	sp, fp, #12
 3383 0d94 00689DE8 		ldmfd	sp, {fp, sp, lr}
 3384 0d98 1EFF2FE1 		bx	lr
 3385              	.L78:
 3386              		.align	2
 3387              	.L77:
 3388 0d9c 0000D501 		.word	30736384
 3389 0da0 0400D501 		.word	30736388
 3390 0da4 3C00D501 		.word	30736444
 3391 0da8 0800D501 		.word	30736392
 3392 0dac 4400D501 		.word	30736452
 3393              		.cfi_endproc
 3394              	.LFE17:
 3396              		.align	2
 3397              		.global	timer4_timeout
 3399              	timer4_timeout:
 3400              	.LFB18:
 233:../src/timers.c **** 
 234:../src/timers.c **** uint16 timer4_timeout( )
 235:../src/timers.c **** {
 3401              		.loc 1 235 0
 3402              		.cfi_startproc
 3403              		@ Function supports interworking.
 3404              		@ args = 0, pretend = 0, frame = 0
 3405              		@ frame_needed = 1, uses_anonymous_args = 0
 3406 0db0 0DC0A0E1 		mov	ip, sp
 3407              	.LCFI36:
 3408              		.cfi_def_cfa_register 12
 3409 0db4 00D82DE9 		stmfd	sp!, {fp, ip, lr, pc}
 3410 0db8 04B04CE2 		sub	fp, ip, #4
 3411              		.cfi_offset 14, -8
 3412              		.cfi_offset 13, -12
 3413              		.cfi_offset 11, -16
 3414              	.LCFI37:
 3415              		.cfi_def_cfa 11, 4
 236:../src/timers.c ****     return !TCNTO4;
 3416              		.loc 1 236 0
 3417 0dbc 24309FE5 		ldr	r3, .L80
 3418 0dc0 003093E5 		ldr	r3, [r3, #0]
 3419 0dc4 000053E3 		cmp	r3, #0
 3420 0dc8 0030A013 		movne	r3, #0
 3421 0dcc 0130A003 		moveq	r3, #1
 3422 0dd0 0338A0E1 		mov	r3, r3, asl #16
 3423 0dd4 2338A0E1 		mov	r3, r3, lsr #16
 237:../src/timers.c **** }
 3424              		.loc 1 237 0
 3425 0dd8 0300A0E1 		mov	r0, r3
 3426 0ddc 0CD04BE2 		sub	sp, fp, #12
 3427 0de0 00689DE8 		ldmfd	sp, {fp, sp, lr}
 3428 0de4 1EFF2FE1 		bx	lr
 3429              	.L81:
 3430              		.align	2
 3431              	.L80:
 3432 0de8 4400D501 		.word	30736452
 3433              		.cfi_endproc
 3434              	.LFE18:
 3436              	.Letext0: